; Function Attrs: mustprogress uwtable
define void @_ZN25SCTPChunkStatisticsDialog16contextMenuEventEP17QContextMenuEvent(ptr noundef nonnull align 8 dereferenceable(128) %0, ptr noundef %1) unnamed_addr #0 align 2 {
  %3 = alloca %class.QPoint, align 4
  %4 = getelementptr inbounds i8, ptr %1, i64 40
  %5 = getelementptr inbounds i8, ptr %0, i64 104
  %6 = load i64, ptr %4, align 4
  store i64 %6, ptr %5, align 8
  %7 = getelementptr inbounds i8, ptr %0, i64 40
  %8 = load ptr, ptr %7, align 8
  %9 = getelementptr inbounds i8, ptr %8, i64 32
  %10 = load ptr, ptr %9, align 8
  %11 = trunc i64 %6 to i32
  %12 = lshr i64 %6, 32
  %13 = trunc i64 %12 to i32
  %14 = add i32 %13, -60
  call void @llvm.lifetime.start.p0(i64 8, ptr nonnull %3)
  store i32 %11, ptr %3, align 4
  %15 = getelementptr inbounds i8, ptr %3, i64 4
  store i32 %14, ptr %15, align 4
  %16 = call noundef ptr @_ZNK12QTableWidget6itemAtERK6QPoint(ptr noundef nonnull align 8 dereferenceable(40) %10, ptr noundef nonnull align 4 dereferenceable(8) %3)
  call void @llvm.lifetime.end.p0(i64 8, ptr nonnull %3)
  %.not = icmp eq ptr %16, null
  br i1 %.not, label %20, label %17

17:                                               ; preds = %2
  %18 = getelementptr inbounds i8, ptr %0, i64 64
  %19 = getelementptr inbounds i8, ptr %1, i64 48
  call void @_ZN5QMenu5popupERK6QPointP7QAction(ptr noundef nonnull align 8 dereferenceable(40) %18, ptr noundef nonnull align 4 dereferenceable(8) %19, ptr noundef null)
  br label %20

20:                                               ; preds = %17, %2
  ret void
}